Certificate:
    Data:
        Version: 3 (0x2)
        Serial Number:
            c4:73:1d:b9:00:e7:15:d3
    Signature Algorithm: sha1WithRSAEncryption
        Issuer: C=RU, ST=RU, O=TSYSTEMS, OU=POP, CN=SERGEY/emailAddress=HUKKA@MAIL.RU
        Validity
            Not Before: Mar  5 11:15:50 2013 GMT
            Not After : Mar  5 11:15:50 2014 GMT
        Subject: C=RU, ST=RU, L=SPB, O=TSYSTEMS, OU=POP, CN=SERGEY/emailAddress=HUKKA@MAIL.RU
        Subject Public Key Info:
            Public Key Algorithm: rsaEncryption
                Public-Key: (1024 bit)
                Modulus:
                    00:b5:17:e4:20:c5:74:43:5a:91:1b:a8:be:5d:16:
                    f4:d9:5b:77:fb:83:eb:f9:17:56:40:a0:7f:ac:55:
                    aa:b0:18:90:d2:eb:ae:35:74:73:83:d2:de:f9:83:
                    96:43:d1:10:21:34:07:18:40:78:40:23:78:cb:2c:
                    68:ec:be:db:04:59:0f:ee:88:3d:71:8c:25:2e:73:
                    c3:77:5b:de:18:9d:ea:70:f5:1d:6e:f5:ca:c4:40:
                    04:da:fa:1a:53:96:cc:5d:f1:55:5d:aa:ad:45:35:
                    a7:9b:97:24:e2:ce:00:b3:89:43:18:4d:ce:f6:cf:
                    0d:3e:0f:ef:af:85:df:52:bd
                Exponent: 65537 (0x10001)
        X509v3 extensions:
            X509v3 Basic Constraints: 
                CA:FALSE
            Netscape Comment: 
                OpenSSL Generated Certificate
            X509v3 Subject Key Identifier: 
                06:A7:5B:A4:3E:BF:28:7C:F7:3A:95:07:CE:32:50:5C:B8:AF:FB:1E
            X509v3 Authority Key Identifier: 
                keyid:2D:AA:DE:24:2F:21:B6:16:67:69:EA:34:E4:95:FF:0A:04:03:35:27

    Signature Algorithm: sha1WithRSAEncryption
         90:89:fe:af:11:44:a5:c5:c3:1e:5c:30:17:53:dc:2f:a5:b7:
         6d:d7:d5:33:bc:7e:3f:26:9a:a6:c0:51:f9:e0:33:0e:b0:33:
         47:9e:e9:fd:dd:f6:74:f1:6e:8c:2d:85:b6:10:a1:a3:e6:2c:
         a0:87:1b:15:8a:ae:a5:25:58:04:78:1e:3c:c2:ba:0f:21:bf:
         80:fb:9b:f8:84:e9:8b:b0:ee:50:aa:8c:39:96:c1:d4:8f:28:
         be:bb:a8:0f:74:26:1c:69:a7:9f:72:81:fd:b4:1d:5f:44:1a:
         8a:4d:e9:bf:7c:2e:bc:df:27:9a:c2:e3:a5:79:0b:5a:92:1d:
         c5:96
-----BEGIN CERTIFICATE-----
MIIC2zCCAkSgAwIBAgIJAMRzHbkA5xXTMA0GCSqGSIb3DQEBBQUAMGoxCzAJBgNV
BAYTAlJVMQswCQYDVQQIDAJSVTERMA8GA1UECgwIVFNZU1RFTVMxDDAKBgNVBAsM
A1BPUDEPMA0GA1UEAwwGU0VSR0VZMRwwGgYJKoZIhvcNAQkBFg1IVUtLQUBNQUlM
LlJVMB4XDTEzMDMwNTExMTU1MFoXDTE0MDMwNTExMTU1MFoweDELMAkGA1UEBhMC
UlUxCzAJBgNVBAgMAlJVMQwwCgYDVQQHDANTUEIxETAPBgNVBAoMCFRTWVNURU1T
MQwwCgYDVQQLDANQT1AxDzANBgNVBAMMBlNFUkdFWTEcMBoGCSqGSIb3DQEJARYN
SFVLS0FATUFJTC5SVTCBnzANBgkqhkiG9w0BAQEFAAOBjQAwgYkCgYEAtRfkIMV0
Q1qRG6i+XRb02Vt3+4Pr+RdWQKB/rFWqsBiQ0uuuNXRzg9Le+YOWQ9EQITQHGEB4
QCN4yyxo7L7bBFkP7og9cYwlLnPDd1veGJ3qcPUdbvXKxEAE2voaU5bMXfFVXaqt
RTWnm5ck4s4As4lDGE3O9s8NPg/vr4XfUr0CAwEAAaN7MHkwCQYDVR0TBAIwADAs
BglghkgBhvhCAQ0EHxYdT3BlblNTTCBHZW5lcmF0ZWQgQ2VydGlmaWNhdGUwHQYD
VR0OBBYEFAanW6Q+vyh89zqVB84yUFy4r/seMB8GA1UdIwQYMBaAFC2q3iQvIbYW
Z2nqNOSV/woEAzUnMA0GCSqGSIb3DQEBBQUAA4GBAJCJ/q8RRKXFwx5cMBdT3C+l
t23X1TO8fj8mmqbAUfngMw6wM0ee6f3d9nTxbowthbYQoaPmLKCHGxWKrqUlWAR4
HjzCug8hv4D7m/iE6Yuw7lCqjDmWwdSPKL67qA90Jhxpp59ygf20HV9EGopN6b98
LrzfJ5rC46V5C1qSHcWW
-----END CERTIFICATE-----
